target datalayout = "e-m:e-p270:32:32-p271:32:32-p272:64:64-i64:64-i128:128-f80:128-n8:16:32:64-S128"
target triple = "x86_64-pc-linux-gnu"

%class.symbol = type { ptr }
%class.decl_plugin = type <{ ptr, ptr, i32, [4 x i8] }>
%class.vector.31 = type { ptr }
%class.parameter = type { %"class.std::variant" }
%"class.std::variant" = type { %"struct.std::__detail::__variant::_Variant_base.base", [7 x i8] }
%"struct.std::__detail::__variant::_Variant_base.base" = type { %"struct.std::__detail::__variant::_Move_assign_base.base" }
%"struct.std::__detail::__variant::_Move_assign_base.base" = type { %"struct.std::__detail::__variant::_Copy_assign_base.base" }
%"struct.std::__detail::__variant::_Copy_assign_base.base" = type { %"struct.std::__detail::__variant::_Move_ctor_base.base" }
%"struct.std::__detail::__variant::_Move_ctor_base.base" = type { %"struct.std::__detail::__variant::_Copy_ctor_base.base" }
%"struct.std::__detail::__variant::_Copy_ctor_base.base" = type { %"struct.std::__detail::__variant::_Variant_storage.base" }
%"struct.std::__detail::__variant::_Variant_storage.base" = type <{ %"union.std::__detail::__variant::_Variadic_union", i8 }>
%"union.std::__detail::__variant::_Variadic_union" = type { %"union.std::__detail::__variant::_Variadic_union.32" }
%"union.std::__detail::__variant::_Variadic_union.32" = type { %"struct.std::__detail::__variant::_Uninitialized.33" }
%"struct.std::__detail::__variant::_Uninitialized.33" = type { ptr }
%class.decl_info = type <{ i32, i32, %class.vector.31, i8, [7 x i8] }>
%class.decl = type { %class.ast, %class.symbol, ptr }
%class.ast = type { i32, i32, i32, i32 }
%"struct.std::__detail::__variant::_Variant_storage" = type <{ %"union.std::__detail::__variant::_Variadic_union", i8, [7 x i8] }>

; Function Attrs: mustprogress nounwind uwtable
define linkonce_odr hidden noundef nonnull align 8 dereferenceable(16) ptr @_ZNK6vectorI9parameterLb1EjEixEj(ptr noundef nonnull align 8 dereferenceable(8) %0, i32 noundef %1) #6 comdat align 2 {
  %3 = alloca ptr, align 8
  %4 = alloca i32, align 4
  store ptr %0, ptr %3, align 8, !tbaa !225
  store i32 %1, ptr %4, align 4, !tbaa !43
  %5 = load ptr, ptr %3, align 8
  %6 = getelementptr inbounds nuw %class.vector.31, ptr %5, i32 0, i32 0
  %7 = load ptr, ptr %6, align 8, !tbaa !227
  %8 = load i32, ptr %4, align 4, !tbaa !43
  %9 = zext i32 %8 to i64
  %10 = getelementptr inbounds nuw %class.parameter, ptr %7, i64 %9
  ret ptr %10
}

; Function Attrs: mustprogress nounwind uwtable
define linkonce_odr hidden noundef i64 @_ZNKSt7variantIJiP3ast6symbolP7zstringP8rationaldjEE5indexEv(ptr noundef nonnull align 8 dereferenceable(9) %0) #6 comdat align 2 {
  %2 = alloca ptr, align 8
  store ptr %0, ptr %2, align 8, !tbaa !255
  %3 = load ptr, ptr %2, align 8
  %4 = getelementptr inbounds nuw %"struct.std::__detail::__variant::_Variant_storage", ptr %3, i32 0, i32 1
  %5 = load i8, ptr %4, align 8, !tbaa !271
  %6 = zext i8 %5 to i64
  ret i64 %6
}

; Function Attrs: mustprogress uwtable
define linkonce_odr hidden noundef nonnull align 8 dereferenceable(16) ptr @_ZNK9decl_info13get_parameterEj(ptr noundef nonnull align 8 dereferenceable(17) %0, i32 noundef %1) #4 comdat align 2 {
  %3 = alloca ptr, align 8
  %4 = alloca i32, align 4
  store ptr %0, ptr %3, align 8, !tbaa !158
  store i32 %1, ptr %4, align 4, !tbaa !43
  %5 = load ptr, ptr %3, align 8
  %6 = getelementptr inbounds nuw %class.decl_info, ptr %5, i32 0, i32 2
  %7 = load i32, ptr %4, align 4, !tbaa !43
  %8 = call noundef nonnull align 8 dereferenceable(16) ptr @_ZNK6vectorI9parameterLb1EjEixEj(ptr noundef nonnull align 8 dereferenceable(8) %6, i32 noundef %7)
  ret ptr %8
}

; Function Attrs: mustprogress nounwind uwtable
define linkonce_odr hidden noundef i32 @_ZNK9decl_info13get_decl_kindEv(ptr noundef nonnull align 8 dereferenceable(17) %0) #6 comdat align 2 {
  %2 = alloca ptr, align 8
  store ptr %0, ptr %2, align 8, !tbaa !158
  %3 = load ptr, ptr %2, align 8
  %4 = getelementptr inbounds nuw %class.decl_info, ptr %3, i32 0, i32 1
  %5 = load i32, ptr %4, align 4, !tbaa !315
  ret i32 %5
}

; Function Attrs: mustprogress nounwind uwtable
define linkonce_odr hidden noundef i32 @_ZNK9decl_info13get_family_idEv(ptr noundef nonnull align 8 dereferenceable(17) %0) #6 comdat align 2 {
  %2 = alloca ptr, align 8
  store ptr %0, ptr %2, align 8, !tbaa !158
  %3 = load ptr, ptr %2, align 8
  %4 = getelementptr inbounds nuw %class.decl_info, ptr %3, i32 0, i32 0
  %5 = load i32, ptr %4, align 8, !tbaa !231
  ret i32 %5
}

; Function Attrs: mustprogress nounwind uwtable
define linkonce_odr hidden noundef i32 @_ZNK9parameter8get_kindEv(ptr noundef nonnull align 8 dereferenceable(16) %0) #6 comdat align 2 {
  %2 = alloca ptr, align 8
  store ptr %0, ptr %2, align 8, !tbaa !142
  %3 = load ptr, ptr %2, align 8
  %4 = getelementptr inbounds nuw %class.parameter, ptr %3, i32 0, i32 0
  %5 = call noundef i64 @_ZNKSt7variantIJiP3ast6symbolP7zstringP8rationaldjEE5indexEv(ptr noundef nonnull align 8 dereferenceable(9) %4) #3
  %6 = trunc i64 %5 to i32
  ret i32 %6
}

; Function Attrs: mustprogress uwtable
define linkonce_odr hidden noundef nonnull align 8 dereferenceable(16) ptr @_ZNK4decl13get_parameterEj(ptr noundef nonnull align 8 dereferenceable(32) %0, i32 noundef %1) #4 comdat align 2 {
  %3 = alloca ptr, align 8
  %4 = alloca i32, align 4
  store ptr %0, ptr %3, align 8, !tbaa !189
  store i32 %1, ptr %4, align 4, !tbaa !43
  %5 = load ptr, ptr %3, align 8
  %6 = getelementptr inbounds nuw %class.decl, ptr %5, i32 0, i32 2
  %7 = load ptr, ptr %6, align 8, !tbaa !170
  %8 = load i32, ptr %4, align 4, !tbaa !43
  %9 = call noundef nonnull align 8 dereferenceable(16) ptr @_ZNK9decl_info13get_parameterEj(ptr noundef nonnull align 8 dereferenceable(17) %7, i32 noundef %8)
  ret ptr %9
}

; Function Attrs: mustprogress uwtable
define linkonce_odr hidden noundef i32 @_ZNK4decl13get_decl_kindEv(ptr noundef nonnull align 8 dereferenceable(32) %0) #4 comdat align 2 {
  %2 = alloca ptr, align 8
  store ptr %0, ptr %2, align 8, !tbaa !189
  %3 = load ptr, ptr %2, align 8
  %4 = getelementptr inbounds nuw %class.decl, ptr %3, i32 0, i32 2
  %5 = load ptr, ptr %4, align 8, !tbaa !170
  %6 = icmp eq ptr %5, null
  br i1 %6, label %7, label %8

7:                                                ; preds = %1
  br label %12

8:                                                ; preds = %1
  %9 = getelementptr inbounds nuw %class.decl, ptr %3, i32 0, i32 2
  %10 = load ptr, ptr %9, align 8, !tbaa !170
  %11 = call noundef i32 @_ZNK9decl_info13get_decl_kindEv(ptr noundef nonnull align 8 dereferenceable(17) %10)
  br label %12

12:                                               ; preds = %8, %7
  %13 = phi i32 [ -1, %7 ], [ %11, %8 ]
  ret i32 %13
}

; Function Attrs: mustprogress nounwind uwtable
define linkonce_odr hidden noundef i32 @_ZNK4decl13get_family_idEv(ptr noundef nonnull align 8 dereferenceable(32) %0) #6 comdat align 2 {
  %2 = alloca ptr, align 8
  store ptr %0, ptr %2, align 8, !tbaa !189
  %3 = load ptr, ptr %2, align 8
  %4 = getelementptr inbounds nuw %class.decl, ptr %3, i32 0, i32 2
  %5 = load ptr, ptr %4, align 8, !tbaa !170
  %6 = icmp eq ptr %5, null
  br i1 %6, label %7, label %8

7:                                                ; preds = %1
  br label %12

8:                                                ; preds = %1
  %9 = getelementptr inbounds nuw %class.decl, ptr %3, i32 0, i32 2
  %10 = load ptr, ptr %9, align 8, !tbaa !170
  %11 = call noundef i32 @_ZNK9decl_info13get_family_idEv(ptr noundef nonnull align 8 dereferenceable(17) %10)
  br label %12

12:                                               ; preds = %8, %7
  %13 = phi i32 [ -1, %7 ], [ %11, %8 ]
  ret i32 %13
}

; Function Attrs: mustprogress uwtable
define linkonce_odr hidden noundef zeroext i1 @_ZNK9parameter6is_intEv(ptr noundef nonnull align 8 dereferenceable(16) %0) #4 comdat align 2 {
  %2 = alloca ptr, align 8
  store ptr %0, ptr %2, align 8, !tbaa !142
  %3 = load ptr, ptr %2, align 8
  %4 = call noundef i32 @_ZNK9parameter8get_kindEv(ptr noundef nonnull align 8 dereferenceable(16) %3)
  %5 = icmp eq i32 %4, 0
  ret i1 %5
}

; Function Attrs: inlinehint mustprogress uwtable
define linkonce_odr hidden noundef zeroext i1 @_ZN14bv_decl_plugin11get_bv_sizeEP4sortRi(ptr noundef nonnull align 8 dereferenceable(608) %0, ptr noundef %1, ptr noundef nonnull align 4 dereferenceable(4) %2) #8 comdat align 2 {
  %4 = alloca i1, align 1
  %5 = alloca ptr, align 8
  %6 = alloca ptr, align 8
  %7 = alloca ptr, align 8
  store ptr %0, ptr %5, align 8, !tbaa !3
  store ptr %1, ptr %6, align 8, !tbaa !46
  store ptr %2, ptr %7, align 8, !tbaa !160
  %8 = load ptr, ptr %5, align 8
  %9 = load ptr, ptr %6, align 8, !tbaa !46
  %10 = call noundef i32 @_ZNK4decl13get_family_idEv(ptr noundef nonnull align 8 dereferenceable(32) %9)
  %11 = getelementptr inbounds nuw %class.decl_plugin, ptr %8, i32 0, i32 2
  %12 = load i32, ptr %11, align 8, !tbaa !35
  %13 = icmp eq i32 %10, %12
  br i1 %13, label %14, label %23

14:                                               ; preds = %3
  %15 = load ptr, ptr %6, align 8, !tbaa !46
  %16 = call noundef i32 @_ZNK4decl13get_decl_kindEv(ptr noundef nonnull align 8 dereferenceable(32) %15)
  %17 = icmp eq i32 %16, 0
  br i1 %17, label %18, label %23

18:                                               ; preds = %14
  %19 = load ptr, ptr %6, align 8, !tbaa !46
  %20 = call noundef nonnull align 8 dereferenceable(16) ptr @_ZNK4decl13get_parameterEj(ptr noundef nonnull align 8 dereferenceable(32) %19, i32 noundef 0)
  %21 = call noundef i32 @_ZNK9parameter7get_intEv(ptr noundef nonnull align 8 dereferenceable(16) %20)
  %22 = load ptr, ptr %7, align 8, !tbaa !160
  store i32 %21, ptr %22, align 4, !tbaa !43
  store i1 true, ptr %4, align 1
  br label %24

23:                                               ; preds = %14, %3
  store i1 false, ptr %4, align 1
  br label %24

24:                                               ; preds = %23, %18
  %25 = load i1, ptr %4, align 1
  ret i1 %25
}

; Function Attrs: mustprogress uwtable
define hidden noundef zeroext i1 @_ZN14bv_decl_plugin16get_extract_sizeEjPK9parameterjPKP4sortRi(ptr noundef nonnull align 8 dereferenceable(608) %0, i32 noundef %1, ptr noundef %2, i32 noundef %3, ptr noundef %4, ptr noundef nonnull align 4 dereferenceable(4) %5) #4 align 2 {
  %7 = alloca i1, align 1
  %8 = alloca ptr, align 8
  %9 = alloca i32, align 4
  %10 = alloca ptr, align 8
  %11 = alloca i32, align 4
  %12 = alloca ptr, align 8
  %13 = alloca ptr, align 8
  %14 = alloca i32, align 4
  %15 = alloca i32, align 4
  store ptr %0, ptr %8, align 8, !tbaa !3
  store i32 %1, ptr %9, align 4, !tbaa !43
  store ptr %2, ptr %10, align 8, !tbaa !142
  store i32 %3, ptr %11, align 4, !tbaa !43
  store ptr %4, ptr %12, align 8, !tbaa !119
  store ptr %5, ptr %13, align 8, !tbaa !160
  %16 = load ptr, ptr %8, align 8
  call void @llvm.lifetime.start.p0(i64 4, ptr %14) #3
  %17 = load i32, ptr %11, align 4, !tbaa !43
  %18 = icmp ne i32 %17, 1
  br i1 %18, label %49, label %19

19:                                               ; preds = %6
  %20 = load ptr, ptr %12, align 8, !tbaa !119
  %21 = getelementptr inbounds ptr, ptr %20, i64 0
  %22 = load ptr, ptr %21, align 8, !tbaa !46
  %23 = call noundef zeroext i1 @_ZN14bv_decl_plugin11get_bv_sizeEP4sortRi(ptr noundef nonnull align 8 dereferenceable(608) %16, ptr noundef %22, ptr noundef nonnull align 4 dereferenceable(4) %14)
  br i1 %23, label %24, label %49

24:                                               ; preds = %19
  %25 = load i32, ptr %9, align 4, !tbaa !43
  %26 = icmp ne i32 %25, 2
  br i1 %26, label %49, label %27

27:                                               ; preds = %24
  %28 = load ptr, ptr %10, align 8, !tbaa !142
  %29 = getelementptr inbounds %class.parameter, ptr %28, i64 0
  %30 = call noundef zeroext i1 @_ZNK9parameter6is_intEv(ptr noundef nonnull align 8 dereferenceable(16) %29)
  br i1 %30, label %31, label %49

31:                                               ; preds = %27
  %32 = load ptr, ptr %10, align 8, !tbaa !142
  %33 = getelementptr inbounds %class.parameter, ptr %32, i64 1
  %34 = call noundef zeroext i1 @_ZNK9parameter6is_intEv(ptr noundef nonnull align 8 dereferenceable(16) %33)
  br i1 %34, label %35, label %49

35:                                               ; preds = %31
  %36 = load ptr, ptr %10, align 8, !tbaa !142
  %37 = getelementptr inbounds %class.parameter, ptr %36, i64 1
  %38 = call noundef i32 @_ZNK9parameter7get_intEv(ptr noundef nonnull align 8 dereferenceable(16) %37)
  %39 = load ptr, ptr %10, align 8, !tbaa !142
  %40 = getelementptr inbounds %class.parameter, ptr %39, i64 0
  %41 = call noundef i32 @_ZNK9parameter7get_intEv(ptr noundef nonnull align 8 dereferenceable(16) %40)
  %42 = icmp sgt i32 %38, %41
  br i1 %42, label %49, label %43

43:                                               ; preds = %35
  %44 = load ptr, ptr %10, align 8, !tbaa !142
  %45 = getelementptr inbounds %class.parameter, ptr %44, i64 0
  %46 = call noundef i32 @_ZNK9parameter7get_intEv(ptr noundef nonnull align 8 dereferenceable(16) %45)
  %47 = load i32, ptr %14, align 4, !tbaa !43
  %48 = icmp sge i32 %46, %47
  br i1 %48, label %49, label %50

49:                                               ; preds = %43, %35, %31, %27, %24, %19, %6
  store i1 false, ptr %7, align 1
  store i32 1, ptr %15, align 4
  br label %60

50:                                               ; preds = %43
  %51 = load ptr, ptr %10, align 8, !tbaa !142
  %52 = getelementptr inbounds %class.parameter, ptr %51, i64 0
  %53 = call noundef i32 @_ZNK9parameter7get_intEv(ptr noundef nonnull align 8 dereferenceable(16) %52)
  %54 = load ptr, ptr %10, align 8, !tbaa !142
  %55 = getelementptr inbounds %class.parameter, ptr %54, i64 1
  %56 = call noundef i32 @_ZNK9parameter7get_intEv(ptr noundef nonnull align 8 dereferenceable(16) %55)
  %57 = sub nsw i32 %53, %56
  %58 = add nsw i32 %57, 1
  %59 = load ptr, ptr %13, align 8, !tbaa !160
  store i32 %58, ptr %59, align 4, !tbaa !43
  store i1 true, ptr %7, align 1
  store i32 1, ptr %15, align 4
  br label %60

60:                                               ; preds = %50, %49
  call void @llvm.lifetime.end.p0(i64 4, ptr %14) #3
  %61 = load i1, ptr %7, align 1
  ret i1 %61
}