; Function Attrs: mustprogress uwtable
define hidden noundef zeroext i1 @_ZN14bv_decl_plugin16get_extract_sizeEjPK9parameterjPKP4sortRi(ptr noundef nonnull readonly align 8 captures(none) dereferenceable(608) %0, i32 noundef %1, ptr noundef %2, i32 noundef %3, ptr noundef readonly captures(none) %4, ptr noundef nonnull writeonly align 4 captures(none) dereferenceable(4) %5) local_unnamed_addr #3 align 2 {
  %.not13 = icmp eq i32 %3, 1
  br i1 %.not13, label %7, label %_ZN14bv_decl_plugin11get_bv_sizeEP4sortRi.exit.thread

7:                                                ; preds = %6
  %8 = load ptr, ptr %4, align 8, !tbaa !17
  %9 = getelementptr inbounds nuw i8, ptr %8, i64 24
  %10 = load ptr, ptr %9, align 8, !tbaa !134
  %11 = icmp eq ptr %10, null
  br i1 %11, label %_ZN14bv_decl_plugin11get_bv_sizeEP4sortRi.exit.thread, label %_ZNK4decl13get_family_idEv.exit.thread.i

_ZNK4decl13get_family_idEv.exit.thread.i:         ; preds = %7
  %12 = load i32, ptr %10, align 8, !tbaa !19
  %13 = getelementptr inbounds nuw i8, ptr %0, i64 16
  %14 = load i32, ptr %13, align 8, !tbaa !10
  %15 = icmp eq i32 %12, %14
  br i1 %15, label %_ZNK4decl13get_decl_kindEv.exit.i, label %_ZN14bv_decl_plugin11get_bv_sizeEP4sortRi.exit.thread

_ZNK4decl13get_decl_kindEv.exit.i:                ; preds = %_ZNK4decl13get_family_idEv.exit.thread.i
  %16 = getelementptr inbounds nuw i8, ptr %10, i64 4
  %17 = load i32, ptr %16, align 4, !tbaa !137
  %18 = icmp eq i32 %17, 0
  br i1 %18, label %19, label %_ZN14bv_decl_plugin11get_bv_sizeEP4sortRi.exit.thread

19:                                               ; preds = %_ZNK4decl13get_decl_kindEv.exit.i
  %20 = getelementptr inbounds nuw i8, ptr %10, i64 8
  %21 = load ptr, ptr %20, align 8, !tbaa !37
  %22 = getelementptr inbounds nuw i8, ptr %21, i64 8
  %23 = load i8, ptr %22, align 8, !tbaa !117
  %.not.i.i.i.i = icmp eq i8 %23, 0
  br i1 %.not.i.i.i.i, label %_ZN14bv_decl_plugin11get_bv_sizeEP4sortRi.exit, label %24

24:                                               ; preds = %19
  %25 = tail call ptr @__cxa_allocate_exception(i64 16) #24
  store ptr getelementptr inbounds nuw inrange(-16, 24) (i8, ptr @_ZTVSt18bad_variant_access, i64 16), ptr %25, align 8, !tbaa !11
  %26 = getelementptr inbounds nuw i8, ptr %25, i64 8
  store ptr @.str.113, ptr %26, align 8, !tbaa !130
  tail call void @__cxa_throw(ptr nonnull %25, ptr nonnull @_ZTISt18bad_variant_access, ptr nonnull @_ZNSt9exceptionD2Ev) #26
  unreachable

_ZN14bv_decl_plugin11get_bv_sizeEP4sortRi.exit:   ; preds = %19
  %27 = load i32, ptr %21, align 4, !tbaa !38
  %28 = icmp eq i32 %1, 2
  br i1 %28, label %29, label %_ZN14bv_decl_plugin11get_bv_sizeEP4sortRi.exit.thread

29:                                               ; preds = %_ZN14bv_decl_plugin11get_bv_sizeEP4sortRi.exit
  %30 = getelementptr inbounds nuw i8, ptr %2, i64 8
  %31 = load i8, ptr %30, align 8, !tbaa !117
  %32 = icmp eq i8 %31, 0
  br i1 %32, label %33, label %_ZN14bv_decl_plugin11get_bv_sizeEP4sortRi.exit.thread

33:                                               ; preds = %29
  %34 = getelementptr inbounds nuw i8, ptr %2, i64 16
  %35 = getelementptr inbounds nuw i8, ptr %2, i64 24
  %36 = load i8, ptr %35, align 8, !tbaa !117
  %37 = icmp eq i8 %36, 0
  br i1 %37, label %_ZNK9parameter7get_intEv.exit16, label %_ZN14bv_decl_plugin11get_bv_sizeEP4sortRi.exit.thread

_ZNK9parameter7get_intEv.exit16:                  ; preds = %33
  %38 = load i32, ptr %34, align 4, !tbaa !38
  %39 = load i32, ptr %2, align 4, !tbaa !38
  %40 = icmp sle i32 %38, %39
  %.not = icmp slt i32 %39, %27
  %or.cond = select i1 %40, i1 %.not, i1 false
  br i1 %or.cond, label %41, label %_ZN14bv_decl_plugin11get_bv_sizeEP4sortRi.exit.thread

41:                                               ; preds = %_ZNK9parameter7get_intEv.exit16
  %42 = tail call noundef i32 @_ZNK9parameter7get_intEv(ptr noundef nonnull align 8 dereferenceable(16) %2)
  %43 = tail call noundef i32 @_ZNK9parameter7get_intEv(ptr noundef nonnull align 8 dereferenceable(16) %34)
  %44 = add i32 %42, 1
  %45 = sub i32 %44, %43
  store i32 %45, ptr %5, align 4, !tbaa !38
  br label %_ZN14bv_decl_plugin11get_bv_sizeEP4sortRi.exit.thread

_ZN14bv_decl_plugin11get_bv_sizeEP4sortRi.exit.thread: ; preds = %7, %_ZNK4decl13get_family_idEv.exit.thread.i, %_ZNK4decl13get_decl_kindEv.exit.i, %6, %_ZN14bv_decl_plugin11get_bv_sizeEP4sortRi.exit, %29, %33, %_ZNK9parameter7get_intEv.exit16, %41
  %.0 = phi i1 [ true, %41 ], [ false, %_ZNK9parameter7get_intEv.exit16 ], [ false, %33 ], [ false, %29 ], [ false, %_ZN14bv_decl_plugin11get_bv_sizeEP4sortRi.exit ], [ false, %6 ], [ false, %_ZNK4decl13get_decl_kindEv.exit.i ], [ false, %_ZNK4decl13get_family_idEv.exit.thread.i ], [ false, %7 ]
  ret i1 %.0
}